target datalayout = "e-m:e-p270:32:32-p271:32:32-p272:64:64-i64:64-i128:128-f80:128-n8:16:32:64-S128"
target triple = "x86_64-pc-linux-gnu"

%struct.AVCodecContext = type { ptr, i32, i32, ptr, i32, i32, ptr, ptr, ptr, i64, i32, i32, ptr, i32, %struct.AVRational, %struct.AVRational, %struct.AVRational, i32, i32, i32, i32, i32, %struct.AVRational, i32, i32, i32, i32, i32, i32, i32, i32, i32, i32, i32, ptr, ptr, i32, float, float, float, float, float, float, float, float, float, i32, i32, i32, i32, i32, i32, i32, i32, i32, i32, i32, i32, ptr, ptr, ptr, i32, i32, i32, i32, i32, i32, i32, i32, i32, i32, %struct.AVChannelLayout, i32, i32, i32, i32, i32, i32, i32, i32, ptr, i32, i32, i32, float, float, i32, i32, i32, i32, i32, ptr, i64, i64, float, float, i32, i32, ptr, ptr, i32, i32, i32, i32, i32, ptr, ptr, ptr, ptr, i32, i32, [8 x i64], i32, i32, i32, i32, i32, i32, i32, ptr, ptr, i32, i32, i32, i32, i32, i32, i32, i32, i32, i32, ptr, ptr, i32, i32, ptr, ptr, ptr, ptr, i32, i32, i64, i32, i32, i64, ptr, i64, ptr, i32, ptr, i32 }
%struct.AVRational = type { i32, i32 }
%struct.AVChannelLayout = type { i32, i32, %union.anon.0, ptr }
%union.anon.0 = type { i64 }
%struct.MagicYUVContext = type { ptr, i32, i32, i32, i32, i32, i32, i32, i32, i32, ptr, [4 x i32], [4 x i32], [4 x ptr], [4 x i32], [4 x %struct.VLC], [4 x %struct.VLC_MULTI], ptr, %struct.LLVidDSPContext, [16384 x %struct.HuffEntry], [16384 x i8] }
%struct.VLC = type { i32, ptr, i32, i32 }
%struct.VLC_MULTI = type { ptr, i32, i32 }
%struct.LLVidDSPContext = type { ptr, ptr, ptr, ptr, ptr }
%struct.HuffEntry = type { i8, i16 }

; Function Attrs: cold nounwind optsize uwtable
define internal i32 @magy_decode_end(ptr noundef %0) #0 {
  %2 = alloca ptr, align 8
  %3 = alloca ptr, align 8
  %4 = alloca i32, align 4
  store ptr %0, ptr %2, align 8, !tbaa !4
  call void @llvm.lifetime.start.p0(i64 8, ptr %3) #12
  %5 = load ptr, ptr %2, align 8, !tbaa !4
  %6 = getelementptr inbounds nuw %struct.AVCodecContext, ptr %5, i32 0, i32 6
  %7 = load ptr, ptr %6, align 8, !tbaa !9
  store ptr %7, ptr %3, align 8, !tbaa !29
  call void @llvm.lifetime.start.p0(i64 4, ptr %4) #12
  store i32 0, ptr %4, align 4, !tbaa !39
  br label %8

8:                                                ; preds = %33, %1
  %9 = load i32, ptr %4, align 4, !tbaa !39
  %10 = sext i32 %9 to i64
  %11 = icmp ult i64 %10, 4
  br i1 %11, label %12, label %36

12:                                               ; preds = %8
  %13 = load ptr, ptr %3, align 8, !tbaa !29
  %14 = getelementptr inbounds nuw %struct.MagicYUVContext, ptr %13, i32 0, i32 13
  %15 = load i32, ptr %4, align 4, !tbaa !39
  %16 = sext i32 %15 to i64
  %17 = getelementptr inbounds [4 x ptr], ptr %14, i64 0, i64 %16
  call void @av_freep(ptr noundef %17)
  %18 = load ptr, ptr %3, align 8, !tbaa !29
  %19 = getelementptr inbounds nuw %struct.MagicYUVContext, ptr %18, i32 0, i32 14
  %20 = load i32, ptr %4, align 4, !tbaa !39
  %21 = sext i32 %20 to i64
  %22 = getelementptr inbounds [4 x i32], ptr %19, i64 0, i64 %21
  store i32 0, ptr %22, align 4, !tbaa !39
  %23 = load ptr, ptr %3, align 8, !tbaa !29
  %24 = getelementptr inbounds nuw %struct.MagicYUVContext, ptr %23, i32 0, i32 15
  %25 = load i32, ptr %4, align 4, !tbaa !39
  %26 = sext i32 %25 to i64
  %27 = getelementptr inbounds [4 x %struct.VLC], ptr %24, i64 0, i64 %26
  call void @ff_vlc_free(ptr noundef %27)
  %28 = load ptr, ptr %3, align 8, !tbaa !29
  %29 = getelementptr inbounds nuw %struct.MagicYUVContext, ptr %28, i32 0, i32 16
  %30 = load i32, ptr %4, align 4, !tbaa !39
  %31 = sext i32 %30 to i64
  %32 = getelementptr inbounds [4 x %struct.VLC_MULTI], ptr %29, i64 0, i64 %31
  call void @ff_vlc_free_multi(ptr noundef %32)
  br label %33

33:                                               ; preds = %12
  %34 = load i32, ptr %4, align 4, !tbaa !39
  %35 = add nsw i32 %34, 1
  store i32 %35, ptr %4, align 4, !tbaa !39
  br label %8, !llvm.loop !81

36:                                               ; preds = %8
  call void @llvm.lifetime.end.p0(i64 4, ptr %4) #12
  call void @llvm.lifetime.end.p0(i64 8, ptr %3) #12
  ret i32 0
}