; Function Attrs: cold nounwind optsize uwtable
define internal noundef i32 @magy_decode_end(ptr noundef readonly captures(none) %0) #0 {
  %2 = getelementptr inbounds nuw i8, ptr %0, i64 32
  %3 = load ptr, ptr %2, align 8, !tbaa !4
  %4 = getelementptr inbounds nuw i8, ptr %3, i64 88
  %5 = getelementptr inbounds nuw i8, ptr %3, i64 120
  %6 = getelementptr inbounds nuw i8, ptr %3, i64 136
  %7 = getelementptr inbounds nuw i8, ptr %3, i64 232
  br label %8

8:                                                ; preds = %1, %8
  %indvars.iv = phi i64 [ 0, %1 ], [ %indvars.iv.next, %8 ]
  %9 = getelementptr inbounds nuw [4 x ptr], ptr %4, i64 0, i64 %indvars.iv
  tail call void @av_freep(ptr noundef nonnull %9) #7
  %10 = getelementptr inbounds nuw [4 x i32], ptr %5, i64 0, i64 %indvars.iv
  store i32 0, ptr %10, align 4, !tbaa !39
  %11 = getelementptr inbounds nuw [4 x %struct.VLC], ptr %6, i64 0, i64 %indvars.iv
  tail call void @ff_vlc_free(ptr noundef nonnull %11) #7
  %12 = getelementptr inbounds nuw [4 x %struct.VLC_MULTI], ptr %7, i64 0, i64 %indvars.iv
  tail call void @ff_vlc_free_multi(ptr noundef nonnull %12) #7
  %indvars.iv.next = add nuw nsw i64 %indvars.iv, 1
  %exitcond.not = icmp eq i64 %indvars.iv.next, 4
  br i1 %exitcond.not, label %13, label %8, !llvm.loop !72

13:                                               ; preds = %8
  ret i32 0
}